target datalayout = "e-m:e-p270:32:32-p271:32:32-p272:64:64-i64:64-i128:128-f80:128-n8:16:32:64-S128"
target triple = "x86_64-pc-linux-gnu"

%struct.lua_State = type { ptr, i8, i8, i8, i8, i16, %union.StkIdRel, ptr, ptr, %union.StkIdRel, %union.StkIdRel, ptr, %union.StkIdRel, ptr, ptr, ptr, %struct.CallInfo, ptr, i64, i32, i32, i32, i32, i32, %struct.anon.2 }
%union.StkIdRel = type { ptr }
%struct.CallInfo = type { %union.StkIdRel, %union.StkIdRel, ptr, ptr, %union.anon, %union.anon.1, i32 }
%union.anon = type { %struct.anon.0 }
%struct.anon.0 = type { ptr, i64, i64 }
%union.anon.1 = type { i32 }
%struct.anon.2 = type { i32, i32 }
%struct.TValue = type { %union.Value, i8 }
%union.Value = type { ptr }
%union.StackValue = type { %struct.TValue }
%struct.anon = type { ptr, i32, i32 }

; Function Attrs: nounwind uwtable
define hidden void @luaT_getvarargs(ptr noundef %0, ptr noundef %1, ptr noundef %2, i32 noundef %3) #0 {
  %5 = alloca ptr, align 8
  %6 = alloca ptr, align 8
  %7 = alloca ptr, align 8
  %8 = alloca i32, align 4
  %9 = alloca i32, align 4
  %10 = alloca i32, align 4
  %11 = alloca i64, align 8
  %12 = alloca ptr, align 8
  %13 = alloca ptr, align 8
  store ptr %0, ptr %5, align 8, !tbaa !4
  store ptr %1, ptr %6, align 8, !tbaa !51
  store ptr %2, ptr %7, align 8, !tbaa !43
  store i32 %3, ptr %8, align 4, !tbaa !9
  call void @llvm.lifetime.start.p0(i64 4, ptr %9) #6
  call void @llvm.lifetime.start.p0(i64 4, ptr %10) #6
  %14 = load ptr, ptr %6, align 8, !tbaa !51
  %15 = getelementptr inbounds nuw %struct.CallInfo, ptr %14, i32 0, i32 4
  %16 = getelementptr inbounds nuw %struct.anon, ptr %15, i32 0, i32 2
  %17 = load i32, ptr %16, align 4, !tbaa !36
  store i32 %17, ptr %10, align 4, !tbaa !9
  %18 = load i32, ptr %8, align 4, !tbaa !9
  %19 = icmp slt i32 %18, 0
  br i1 %19, label %20, label %65

20:                                               ; preds = %4
  %21 = load i32, ptr %10, align 4, !tbaa !9
  store i32 %21, ptr %8, align 4, !tbaa !9
  %22 = load ptr, ptr %5, align 8, !tbaa !4
  %23 = getelementptr inbounds nuw %struct.lua_State, ptr %22, i32 0, i32 9
  %24 = load ptr, ptr %23, align 8, !tbaa !36
  %25 = load ptr, ptr %5, align 8, !tbaa !4
  %26 = getelementptr inbounds nuw %struct.lua_State, ptr %25, i32 0, i32 6
  %27 = load ptr, ptr %26, align 8, !tbaa !36
  %28 = ptrtoint ptr %24 to i64
  %29 = ptrtoint ptr %27 to i64
  %30 = sub i64 %28, %29
  %31 = sdiv exact i64 %30, 16
  %32 = load i32, ptr %10, align 4, !tbaa !9
  %33 = sext i32 %32 to i64
  %34 = icmp sle i64 %31, %33
  %35 = zext i1 %34 to i32
  %36 = icmp ne i32 %35, 0
  %37 = zext i1 %36 to i32
  %38 = sext i32 %37 to i64
  %39 = call i64 @llvm.expect.i64(i64 %38, i64 0)
  %40 = icmp ne i64 %39, 0
  br i1 %40, label %41, label %57

41:                                               ; preds = %20
  call void @llvm.lifetime.start.p0(i64 8, ptr %11) #6
  %42 = load ptr, ptr %7, align 8, !tbaa !43
  %43 = load ptr, ptr %5, align 8, !tbaa !4
  %44 = getelementptr inbounds nuw %struct.lua_State, ptr %43, i32 0, i32 10
  %45 = load ptr, ptr %44, align 8, !tbaa !36
  %46 = ptrtoint ptr %42 to i64
  %47 = ptrtoint ptr %45 to i64
  %48 = sub i64 %46, %47
  store i64 %48, ptr %11, align 8, !tbaa !48
  %49 = load ptr, ptr %5, align 8, !tbaa !4
  %50 = load i32, ptr %10, align 4, !tbaa !9
  %51 = call i32 @luaD_growstack(ptr noundef %49, i32 noundef %50, i32 noundef 1)
  %52 = load ptr, ptr %5, align 8, !tbaa !4
  %53 = getelementptr inbounds nuw %struct.lua_State, ptr %52, i32 0, i32 10
  %54 = load ptr, ptr %53, align 8, !tbaa !36
  %55 = load i64, ptr %11, align 8, !tbaa !48
  %56 = getelementptr inbounds i8, ptr %54, i64 %55
  store ptr %56, ptr %7, align 8, !tbaa !43
  call void @llvm.lifetime.end.p0(i64 8, ptr %11) #6
  br label %58

57:                                               ; preds = %20
  br label %58

58:                                               ; preds = %57, %41
  %59 = load ptr, ptr %7, align 8, !tbaa !43
  %60 = load i32, ptr %10, align 4, !tbaa !9
  %61 = sext i32 %60 to i64
  %62 = getelementptr inbounds %union.StackValue, ptr %59, i64 %61
  %63 = load ptr, ptr %5, align 8, !tbaa !4
  %64 = getelementptr inbounds nuw %struct.lua_State, ptr %63, i32 0, i32 6
  store ptr %62, ptr %64, align 8, !tbaa !36
  br label %65

65:                                               ; preds = %58, %4
  store i32 0, ptr %9, align 4, !tbaa !9
  br label %66

66:                                               ; preds = %100, %65
  %67 = load i32, ptr %9, align 4, !tbaa !9
  %68 = load i32, ptr %8, align 4, !tbaa !9
  %69 = icmp slt i32 %67, %68
  br i1 %69, label %70, label %74

70:                                               ; preds = %66
  %71 = load i32, ptr %9, align 4, !tbaa !9
  %72 = load i32, ptr %10, align 4, !tbaa !9
  %73 = icmp slt i32 %71, %72
  br label %74

74:                                               ; preds = %70, %66
  %75 = phi i1 [ false, %66 ], [ %73, %70 ]
  br i1 %75, label %76, label %103

76:                                               ; preds = %74
  call void @llvm.lifetime.start.p0(i64 8, ptr %12) #6
  %77 = load ptr, ptr %7, align 8, !tbaa !43
  %78 = load i32, ptr %9, align 4, !tbaa !9
  %79 = sext i32 %78 to i64
  %80 = getelementptr inbounds %union.StackValue, ptr %77, i64 %79
  store ptr %80, ptr %12, align 8, !tbaa !28
  call void @llvm.lifetime.start.p0(i64 8, ptr %13) #6
  %81 = load ptr, ptr %6, align 8, !tbaa !51
  %82 = getelementptr inbounds nuw %struct.CallInfo, ptr %81, i32 0, i32 0
  %83 = load ptr, ptr %82, align 8, !tbaa !36
  %84 = load i32, ptr %10, align 4, !tbaa !9
  %85 = sext i32 %84 to i64
  %86 = sub i64 0, %85
  %87 = getelementptr inbounds %union.StackValue, ptr %83, i64 %86
  %88 = load i32, ptr %9, align 4, !tbaa !9
  %89 = sext i32 %88 to i64
  %90 = getelementptr inbounds %union.StackValue, ptr %87, i64 %89
  store ptr %90, ptr %13, align 8, !tbaa !28
  %91 = load ptr, ptr %12, align 8, !tbaa !28
  %92 = getelementptr inbounds nuw %struct.TValue, ptr %91, i32 0, i32 0
  %93 = load ptr, ptr %13, align 8, !tbaa !28
  %94 = getelementptr inbounds nuw %struct.TValue, ptr %93, i32 0, i32 0
  call void @llvm.memcpy.p0.p0.i64(ptr align 8 %92, ptr align 8 %94, i64 8, i1 false), !tbaa.struct !45
  %95 = load ptr, ptr %13, align 8, !tbaa !28
  %96 = getelementptr inbounds nuw %struct.TValue, ptr %95, i32 0, i32 1
  %97 = load i8, ptr %96, align 8, !tbaa !30
  %98 = load ptr, ptr %12, align 8, !tbaa !28
  %99 = getelementptr inbounds nuw %struct.TValue, ptr %98, i32 0, i32 1
  store i8 %97, ptr %99, align 8, !tbaa !30
  call void @llvm.lifetime.end.p0(i64 8, ptr %13) #6
  call void @llvm.lifetime.end.p0(i64 8, ptr %12) #6
  br label %100

100:                                              ; preds = %76
  %101 = load i32, ptr %9, align 4, !tbaa !9
  %102 = add nsw i32 %101, 1
  store i32 %102, ptr %9, align 4, !tbaa !9
  br label %66

103:                                              ; preds = %74
  br label %104

104:                                              ; preds = %114, %103
  %105 = load i32, ptr %9, align 4, !tbaa !9
  %106 = load i32, ptr %8, align 4, !tbaa !9
  %107 = icmp slt i32 %105, %106
  br i1 %107, label %108, label %117

108:                                              ; preds = %104
  %109 = load ptr, ptr %7, align 8, !tbaa !43
  %110 = load i32, ptr %9, align 4, !tbaa !9
  %111 = sext i32 %110 to i64
  %112 = getelementptr inbounds %union.StackValue, ptr %109, i64 %111
  %113 = getelementptr inbounds nuw %struct.TValue, ptr %112, i32 0, i32 1
  store i8 0, ptr %113, align 8, !tbaa !36
  br label %114

114:                                              ; preds = %108
  %115 = load i32, ptr %9, align 4, !tbaa !9
  %116 = add nsw i32 %115, 1
  store i32 %116, ptr %9, align 4, !tbaa !9
  br label %104

117:                                              ; preds = %104
  call void @llvm.lifetime.end.p0(i64 4, ptr %10) #6
  call void @llvm.lifetime.end.p0(i64 4, ptr %9) #6
  ret void
}