; Function Attrs: nounwind uwtable
define hidden void @luaT_getvarargs(ptr noundef %0, ptr noundef readonly captures(none) %1, ptr noundef %2, i32 noundef %3) local_unnamed_addr #0 {
  %5 = getelementptr inbounds nuw i8, ptr %1, i64 44
  %6 = load i32, ptr %5, align 4, !tbaa !31
  %.fr = freeze i32 %6
  %7 = icmp slt i32 %3, 0
  br i1 %7, label %8, label %29

8:                                                ; preds = %4
  %9 = getelementptr inbounds nuw i8, ptr %0, i64 40
  %10 = load ptr, ptr %9, align 8, !tbaa !31
  %11 = getelementptr inbounds nuw i8, ptr %0, i64 16
  %12 = load ptr, ptr %11, align 8, !tbaa !31
  %13 = ptrtoint ptr %10 to i64
  %14 = ptrtoint ptr %12 to i64
  %15 = sub i64 %13, %14
  %16 = ashr exact i64 %15, 4
  %17 = sext i32 %.fr to i64
  %.not = icmp sgt i64 %16, %17
  br i1 %.not, label %27, label %18, !prof !50

18:                                               ; preds = %8
  %19 = getelementptr inbounds nuw i8, ptr %0, i64 48
  %20 = load ptr, ptr %19, align 8, !tbaa !31
  %21 = ptrtoint ptr %2 to i64
  %22 = ptrtoint ptr %20 to i64
  %23 = sub i64 %21, %22
  %24 = tail call i32 @luaD_growstack(ptr noundef nonnull %0, i32 noundef %.fr, i32 noundef 1) #5
  %25 = load ptr, ptr %19, align 8, !tbaa !31
  %26 = getelementptr inbounds i8, ptr %25, i64 %23
  br label %27

27:                                               ; preds = %8, %18
  %.1 = phi ptr [ %26, %18 ], [ %2, %8 ]
  %28 = getelementptr inbounds %union.StackValue, ptr %.1, i64 %17
  store ptr %28, ptr %11, align 8, !tbaa !31
  br label %29

29:                                               ; preds = %27, %4
  %.033 = phi i32 [ %.fr, %27 ], [ %3, %4 ]
  %.0 = phi ptr [ %.1, %27 ], [ %2, %4 ]
  %invariant.smin = tail call i32 @llvm.smin.i32(i32 %.033, i32 %.fr)
  %30 = icmp sgt i32 %invariant.smin, 0
  br i1 %30, label %.lr.ph, label %.preheader

.lr.ph:                                           ; preds = %29
  %31 = sext i32 %.fr to i64
  %32 = sub nsw i64 0, %31
  %wide.trip.count = zext nneg i32 %invariant.smin to i64
  br label %35

.preheader:                                       ; preds = %35, %29
  %.034.lcssa = phi i32 [ 0, %29 ], [ %invariant.smin, %35 ]
  %33 = icmp slt i32 %.034.lcssa, %.033
  br i1 %33, label %.lr.ph40.preheader, label %._crit_edge

.lr.ph40.preheader:                               ; preds = %.preheader
  %34 = zext nneg i32 %.034.lcssa to i64
  %wide.trip.count45 = zext i32 %.033 to i64
  br label %.lr.ph40

35:                                               ; preds = %.lr.ph, %35
  %indvars.iv = phi i64 [ 0, %.lr.ph ], [ %indvars.iv.next, %35 ]
  %36 = getelementptr inbounds nuw %union.StackValue, ptr %.0, i64 %indvars.iv
  %37 = load ptr, ptr %1, align 8, !tbaa !31
  %38 = getelementptr inbounds %union.StackValue, ptr %37, i64 %32
  %39 = getelementptr inbounds nuw %union.StackValue, ptr %38, i64 %indvars.iv
  %40 = load i64, ptr %39, align 8, !tbaa !31
  store i64 %40, ptr %36, align 8, !tbaa !31
  %41 = getelementptr inbounds nuw i8, ptr %39, i64 8
  %42 = load i8, ptr %41, align 8, !tbaa !24
  %43 = getelementptr inbounds nuw i8, ptr %36, i64 8
  store i8 %42, ptr %43, align 8, !tbaa !24
  %indvars.iv.next = add nuw nsw i64 %indvars.iv, 1
  %exitcond.not = icmp eq i64 %indvars.iv.next, %wide.trip.count
  br i1 %exitcond.not, label %.preheader, label %35

.lr.ph40:                                         ; preds = %.lr.ph40.preheader, %.lr.ph40
  %indvars.iv42 = phi i64 [ %34, %.lr.ph40.preheader ], [ %indvars.iv.next43, %.lr.ph40 ]
  %44 = getelementptr inbounds nuw %union.StackValue, ptr %.0, i64 %indvars.iv42, i32 0, i32 1
  store i8 0, ptr %44, align 8, !tbaa !31
  %indvars.iv.next43 = add nuw nsw i64 %indvars.iv42, 1
  %exitcond46.not = icmp eq i64 %indvars.iv.next43, %wide.trip.count45
  br i1 %exitcond46.not, label %._crit_edge, label %.lr.ph40

._crit_edge:                                      ; preds = %.lr.ph40, %.preheader
  ret void
}